target datalayout = "e-m:e-p270:32:32-p271:32:32-p272:64:64-i64:64-i128:128-f80:128-n8:16:32:64-S128"
target triple = "x86_64-pc-linux-gnu"

%class.anon.1806 = type { i8 }

; Function Attrs: inlinehint mustprogress nounwind uwtable
define internal noundef ptr @_ZZN8pybind116class_IZ35test_submodule_multiple_inheritanceRNS_7module_EE4MVD1JZ35test_submodule_multiple_inheritanceS2_E3MVCEE8add_baseIS4_TnNSt9enable_ifIXsr7is_baseIT_EE5valueEiE4typeELi0EEEvRNS_6detail11type_recordEENKUlPvE_clESE_(ptr noundef nonnull align 1 dereferenceable(1) %0, ptr noundef %1) #0 align 2 {
  %3 = alloca ptr, align 8
  %4 = alloca ptr, align 8
  store ptr %0, ptr %3, align 8, !tbaa !85
  store ptr %1, ptr %4, align 8, !tbaa !85
  %5 = load ptr, ptr %4, align 8, !tbaa !85
  %6 = icmp eq ptr %5, null
  br i1 %6, label %12, label %7

7:                                                ; preds = %2
  %8 = load ptr, ptr %5, align 8, !tbaa !246
  %9 = getelementptr i8, ptr %8, i64 -24
  %10 = load i64, ptr %9, align 8
  %11 = getelementptr inbounds i8, ptr %5, i64 %10
  br label %12

12:                                               ; preds = %7, %2
  %13 = phi ptr [ %11, %7 ], [ null, %2 ]
  ret ptr %13
}

; Function Attrs: inlinehint mustprogress uwtable
define internal noundef ptr @_ZZN8pybind116class_IZ35test_submodule_multiple_inheritanceRNS_7module_EE4MVD1JZ35test_submodule_multiple_inheritanceS2_E3MVCEE8add_baseIS4_TnNSt9enable_ifIXsr7is_baseIT_EE5valueEiE4typeELi0EEEvRNS_6detail11type_recordEENUlPvE_8__invokeESE_(ptr noundef %0) #10 align 2 {
  %2 = alloca ptr, align 8
  %3 = alloca %class.anon.1806, align 1
  store ptr %0, ptr %2, align 8, !tbaa !85
  %4 = load ptr, ptr %2, align 8, !tbaa !85
  %5 = call noundef ptr @_ZZN8pybind116class_IZ35test_submodule_multiple_inheritanceRNS_7module_EE4MVD1JZ35test_submodule_multiple_inheritanceS2_E3MVCEE8add_baseIS4_TnNSt9enable_ifIXsr7is_baseIT_EE5valueEiE4typeELi0EEEvRNS_6detail11type_recordEENKUlPvE_clESE_(ptr noundef nonnull align 1 dereferenceable(1) %3, ptr noundef %4)
  ret ptr %5
}